target datalayout = "e-m:e-p270:32:32-p271:32:32-p272:64:64-i64:64-i128:128-f80:128-n8:16:32:64-S128"
target triple = "x86_64-pc-linux-gnu"

%struct.RelMapFile = type { i32, i32, [64 x %struct.RelMapping], i32 }
%struct.RelMapping = type { i32, i32 }
%union.LWLockPadded = type { %struct.LWLock, [112 x i8] }
%struct.LWLock = type { i16, %struct.pg_atomic_uint32, %struct.proclist_head }
%struct.pg_atomic_uint32 = type { i32 }
%struct.proclist_head = type { i32, i32 }

@MainLWLockArray = external global ptr, align 8

; Function Attrs: nounwind uwtable
define dso_local void @RelationMapCopy(i32 noundef %0, i32 noundef %1, ptr noundef %2, ptr noundef %3) #0 {
  %5 = alloca i32, align 4
  %6 = alloca i32, align 4
  %7 = alloca ptr, align 8
  %8 = alloca ptr, align 8
  %9 = alloca %struct.RelMapFile, align 4
  store i32 %0, ptr %5, align 4
  store i32 %1, ptr %6, align 4
  store ptr %2, ptr %7, align 8
  store ptr %3, ptr %8, align 8
  call void @llvm.lifetime.start.p0(i64 524, ptr %9) #8
  %10 = load ptr, ptr %7, align 8
  call void @read_relmap_file(ptr noundef %9, ptr noundef %10, i1 noundef zeroext false, i32 noundef 21)
  %11 = load ptr, ptr @MainLWLockArray, align 8
  %12 = getelementptr inbounds %union.LWLockPadded, ptr %11, i64 25
  %13 = call zeroext i1 @LWLockAcquire(ptr noundef %12, i32 noundef 0)
  %14 = load i32, ptr %5, align 4
  %15 = load i32, ptr %6, align 4
  %16 = load ptr, ptr %8, align 8
  call void @write_relmap_file(ptr noundef %9, i1 noundef zeroext true, i1 noundef zeroext false, i1 noundef zeroext false, i32 noundef %14, i32 noundef %15, ptr noundef %16)
  %17 = load ptr, ptr @MainLWLockArray, align 8
  %18 = getelementptr inbounds %union.LWLockPadded, ptr %17, i64 25
  call void @LWLockRelease(ptr noundef %18)
  call void @llvm.lifetime.end.p0(i64 524, ptr %9) #8
  ret void
}