; Function Attrs: nounwind uwtable
define dso_local void @RelationMapCopy(i32 noundef %0, i32 noundef %1, ptr noundef %2, ptr noundef %3) local_unnamed_addr #2 {
  %5 = alloca %struct.RelMapFile, align 4
  call void @llvm.lifetime.start.p0(i64 524, ptr nonnull %5) #12
  call fastcc void @read_relmap_file(ptr noundef nonnull %5, ptr noundef %2, i1 noundef zeroext false, i32 noundef 21)
  %6 = load ptr, ptr @MainLWLockArray, align 8
  %7 = getelementptr inbounds nuw i8, ptr %6, i64 3200
  %8 = call zeroext i1 @LWLockAcquire(ptr noundef nonnull %7, i32 noundef 0) #12
  call fastcc void @write_relmap_file(ptr noundef nonnull %5, i1 noundef zeroext true, i1 noundef zeroext false, i1 noundef zeroext false, i32 noundef %0, i32 noundef %1, ptr noundef %3)
  %9 = load ptr, ptr @MainLWLockArray, align 8
  %10 = getelementptr inbounds nuw i8, ptr %9, i64 3200
  call void @LWLockRelease(ptr noundef nonnull %10) #12
  call void @llvm.lifetime.end.p0(i64 524, ptr nonnull %5) #12
  ret void
}